target datalayout = "e-m:e-p270:32:32-p271:32:32-p272:64:64-i64:64-i128:128-f80:128-n8:16:32:64-S128"
target triple = "x86_64-pc-linux-gnu"

@ett_s7comm_szl_0131_0007_funkt_0 = internal global i32 0, align 4
@ett_s7comm_szl_0131_0007_obj_0 = internal global i32 0, align 4
@ett_s7comm_szl_0131_0007_mode = internal global i32 0, align 4
@hf_s7comm_szl_0131_0007_index = internal global i32 0, align 4
@hf_s7comm_szl_0131_0007_funkt_0 = internal global i32 0, align 4
@hf_s7comm_szl_0131_0007_funkt_1 = internal global i32 0, align 4
@hf_s7comm_szl_0131_0007_obj_0 = internal global i32 0, align 4
@hf_s7comm_szl_0131_0007_obj_1 = internal global i32 0, align 4
@hf_s7comm_szl_0131_0007_kons = internal global i32 0, align 4
@hf_s7comm_szl_0131_0007_sen = internal global i32 0, align 4
@hf_s7comm_szl_0131_0007_rec = internal global i32 0, align 4
@hf_s7comm_szl_0131_0007_time = internal global i32 0, align 4
@hf_s7comm_szl_0131_0007_proj = internal global i32 0, align 4
@hf_s7comm_szl_0131_0007_alarm = internal global i32 0, align 4
@hf_s7comm_szl_0131_0007_mode = internal global i32 0, align 4
@hf_s7comm_szl_0131_0007_kreis = internal global i32 0, align 4
@hf_s7comm_szl_0131_0007_sk_1 = internal global i32 0, align 4
@hf_s7comm_szl_0131_0007_sk_2 = internal global i32 0, align 4
@hf_s7comm_szl_0131_0007_ek_1 = internal global i32 0, align 4
@hf_s7comm_szl_0131_0007_ek_2 = internal global i32 0, align 4
@hf_s7comm_szl_0131_0007_len_1 = internal global i32 0, align 4
@hf_s7comm_szl_0131_0007_len_2 = internal global i32 0, align 4
@hf_s7comm_szl_0131_0007_len_3 = internal global i32 0, align 4
@hf_s7comm_szl_0131_0007_res = internal global i32 0, align 4
@s7comm_szl_0131_0007_mode_fields = internal constant [3 x ptr] [ptr @hf_s7comm_szl_0131_0007_mode_0, ptr @hf_s7comm_szl_0131_0007_mode_1, ptr null], align 16

; Function Attrs: null_pointer_is_valid sspstrong uwtable
define internal i32 @s7comm_decode_szl_id_0131_idx_0007(ptr noundef %0, ptr noundef %1, i32 noundef %2) #0 {
  %4 = alloca ptr, align 8
  %5 = alloca ptr, align 8
  %6 = alloca i32, align 4
  store ptr %0, ptr %4, align 8
  store ptr %1, ptr %5, align 8
  store i32 %2, ptr %6, align 4
  %7 = load ptr, ptr %5, align 8
  %8 = load i32, ptr @hf_s7comm_szl_0131_0007_index, align 4
  %9 = load ptr, ptr %4, align 8
  %10 = load i32, ptr %6, align 4
  %11 = call ptr @proto_tree_add_item(ptr noundef %7, i32 noundef %8, ptr noundef %9, i32 noundef %10, i32 noundef 2, i32 noundef 0)
  %12 = load i32, ptr %6, align 4
  %13 = add i32 %12, 2
  store i32 %13, ptr %6, align 4
  %14 = load ptr, ptr %5, align 8
  %15 = load ptr, ptr %4, align 8
  %16 = load i32, ptr %6, align 4
  %17 = load i32, ptr @hf_s7comm_szl_0131_0007_funkt_0, align 4
  %18 = load i32, ptr @ett_s7comm_szl_0131_0007_funkt_0, align 4
  %19 = call ptr @proto_tree_add_bitmask(ptr noundef %14, ptr noundef %15, i32 noundef %16, i32 noundef %17, i32 noundef %18, ptr noundef @s7comm_szl_0131_0007_funkt_0_fields, i32 noundef 0)
  %20 = load i32, ptr %6, align 4
  %21 = add i32 %20, 1
  store i32 %21, ptr %6, align 4
  %22 = load ptr, ptr %5, align 8
  %23 = load i32, ptr @hf_s7comm_szl_0131_0007_funkt_1, align 4
  %24 = load ptr, ptr %4, align 8
  %25 = load i32, ptr %6, align 4
  %26 = call ptr @proto_tree_add_item(ptr noundef %22, i32 noundef %23, ptr noundef %24, i32 noundef %25, i32 noundef 1, i32 noundef 0)
  %27 = load i32, ptr %6, align 4
  %28 = add i32 %27, 1
  store i32 %28, ptr %6, align 4
  %29 = load ptr, ptr %5, align 8
  %30 = load ptr, ptr %4, align 8
  %31 = load i32, ptr %6, align 4
  %32 = load i32, ptr @hf_s7comm_szl_0131_0007_obj_0, align 4
  %33 = load i32, ptr @ett_s7comm_szl_0131_0007_obj_0, align 4
  %34 = call ptr @proto_tree_add_bitmask(ptr noundef %29, ptr noundef %30, i32 noundef %31, i32 noundef %32, i32 noundef %33, ptr noundef @s7comm_szl_0131_0007_obj_0_fields, i32 noundef 0)
  %35 = load i32, ptr %6, align 4
  %36 = add i32 %35, 1
  store i32 %36, ptr %6, align 4
  %37 = load ptr, ptr %5, align 8
  %38 = load i32, ptr @hf_s7comm_szl_0131_0007_obj_1, align 4
  %39 = load ptr, ptr %4, align 8
  %40 = load i32, ptr %6, align 4
  %41 = call ptr @proto_tree_add_item(ptr noundef %37, i32 noundef %38, ptr noundef %39, i32 noundef %40, i32 noundef 1, i32 noundef 0)
  %42 = load i32, ptr %6, align 4
  %43 = add i32 %42, 1
  store i32 %43, ptr %6, align 4
  %44 = load ptr, ptr %5, align 8
  %45 = load i32, ptr @hf_s7comm_szl_0131_0007_kons, align 4
  %46 = load ptr, ptr %4, align 8
  %47 = load i32, ptr %6, align 4
  %48 = call ptr @proto_tree_add_item(ptr noundef %44, i32 noundef %45, ptr noundef %46, i32 noundef %47, i32 noundef 1, i32 noundef 0)
  %49 = load i32, ptr %6, align 4
  %50 = add i32 %49, 1
  store i32 %50, ptr %6, align 4
  %51 = load ptr, ptr %5, align 8
  %52 = load i32, ptr @hf_s7comm_szl_0131_0007_sen, align 4
  %53 = load ptr, ptr %4, align 8
  %54 = load i32, ptr %6, align 4
  %55 = call ptr @proto_tree_add_item(ptr noundef %51, i32 noundef %52, ptr noundef %53, i32 noundef %54, i32 noundef 1, i32 noundef 0)
  %56 = load i32, ptr %6, align 4
  %57 = add i32 %56, 1
  store i32 %57, ptr %6, align 4
  %58 = load ptr, ptr %5, align 8
  %59 = load i32, ptr @hf_s7comm_szl_0131_0007_rec, align 4
  %60 = load ptr, ptr %4, align 8
  %61 = load i32, ptr %6, align 4
  %62 = call ptr @proto_tree_add_item(ptr noundef %58, i32 noundef %59, ptr noundef %60, i32 noundef %61, i32 noundef 1, i32 noundef 0)
  %63 = load i32, ptr %6, align 4
  %64 = add i32 %63, 1
  store i32 %64, ptr %6, align 4
  %65 = load ptr, ptr %5, align 8
  %66 = load i32, ptr @hf_s7comm_szl_0131_0007_time, align 4
  %67 = load ptr, ptr %4, align 8
  %68 = load i32, ptr %6, align 4
  %69 = call ptr @proto_tree_add_item(ptr noundef %65, i32 noundef %66, ptr noundef %67, i32 noundef %68, i32 noundef 1, i32 noundef 0)
  %70 = load i32, ptr %6, align 4
  %71 = add i32 %70, 1
  store i32 %71, ptr %6, align 4
  %72 = load ptr, ptr %5, align 8
  %73 = load i32, ptr @hf_s7comm_szl_0131_0007_proj, align 4
  %74 = load ptr, ptr %4, align 8
  %75 = load i32, ptr %6, align 4
  %76 = call ptr @proto_tree_add_item(ptr noundef %72, i32 noundef %73, ptr noundef %74, i32 noundef %75, i32 noundef 1, i32 noundef 0)
  %77 = load i32, ptr %6, align 4
  %78 = add i32 %77, 1
  store i32 %78, ptr %6, align 4
  %79 = load ptr, ptr %5, align 8
  %80 = load i32, ptr @hf_s7comm_szl_0131_0007_alarm, align 4
  %81 = load ptr, ptr %4, align 8
  %82 = load i32, ptr %6, align 4
  %83 = call ptr @proto_tree_add_item(ptr noundef %79, i32 noundef %80, ptr noundef %81, i32 noundef %82, i32 noundef 1, i32 noundef 0)
  %84 = load i32, ptr %6, align 4
  %85 = add i32 %84, 1
  store i32 %85, ptr %6, align 4
  %86 = load ptr, ptr %5, align 8
  %87 = load ptr, ptr %4, align 8
  %88 = load i32, ptr %6, align 4
  %89 = load i32, ptr @hf_s7comm_szl_0131_0007_mode, align 4
  %90 = load i32, ptr @ett_s7comm_szl_0131_0007_mode, align 4
  %91 = call ptr @proto_tree_add_bitmask(ptr noundef %86, ptr noundef %87, i32 noundef %88, i32 noundef %89, i32 noundef %90, ptr noundef @s7comm_szl_0131_0007_mode_fields, i32 noundef 0)
  %92 = load i32, ptr %6, align 4
  %93 = add i32 %92, 1
  store i32 %93, ptr %6, align 4
  %94 = load ptr, ptr %5, align 8
  %95 = load i32, ptr @hf_s7comm_szl_0131_0007_kreis, align 4
  %96 = load ptr, ptr %4, align 8
  %97 = load i32, ptr %6, align 4
  %98 = call ptr @proto_tree_add_item(ptr noundef %94, i32 noundef %95, ptr noundef %96, i32 noundef %97, i32 noundef 1, i32 noundef 0)
  %99 = load i32, ptr %6, align 4
  %100 = add i32 %99, 1
  store i32 %100, ptr %6, align 4
  %101 = load ptr, ptr %5, align 8
  %102 = load i32, ptr @hf_s7comm_szl_0131_0007_sk_1, align 4
  %103 = load ptr, ptr %4, align 8
  %104 = load i32, ptr %6, align 4
  %105 = call ptr @proto_tree_add_item(ptr noundef %101, i32 noundef %102, ptr noundef %103, i32 noundef %104, i32 noundef 1, i32 noundef 0)
  %106 = load i32, ptr %6, align 4
  %107 = add i32 %106, 1
  store i32 %107, ptr %6, align 4
  %108 = load ptr, ptr %5, align 8
  %109 = load i32, ptr @hf_s7comm_szl_0131_0007_sk_2, align 4
  %110 = load ptr, ptr %4, align 8
  %111 = load i32, ptr %6, align 4
  %112 = call ptr @proto_tree_add_item(ptr noundef %108, i32 noundef %109, ptr noundef %110, i32 noundef %111, i32 noundef 1, i32 noundef 0)
  %113 = load i32, ptr %6, align 4
  %114 = add i32 %113, 1
  store i32 %114, ptr %6, align 4
  %115 = load ptr, ptr %5, align 8
  %116 = load i32, ptr @hf_s7comm_szl_0131_0007_ek_1, align 4
  %117 = load ptr, ptr %4, align 8
  %118 = load i32, ptr %6, align 4
  %119 = call ptr @proto_tree_add_item(ptr noundef %115, i32 noundef %116, ptr noundef %117, i32 noundef %118, i32 noundef 1, i32 noundef 0)
  %120 = load i32, ptr %6, align 4
  %121 = add i32 %120, 1
  store i32 %121, ptr %6, align 4
  %122 = load ptr, ptr %5, align 8
  %123 = load i32, ptr @hf_s7comm_szl_0131_0007_ek_2, align 4
  %124 = load ptr, ptr %4, align 8
  %125 = load i32, ptr %6, align 4
  %126 = call ptr @proto_tree_add_item(ptr noundef %122, i32 noundef %123, ptr noundef %124, i32 noundef %125, i32 noundef 1, i32 noundef 0)
  %127 = load i32, ptr %6, align 4
  %128 = add i32 %127, 1
  store i32 %128, ptr %6, align 4
  %129 = load ptr, ptr %5, align 8
  %130 = load i32, ptr @hf_s7comm_szl_0131_0007_len_1, align 4
  %131 = load ptr, ptr %4, align 8
  %132 = load i32, ptr %6, align 4
  %133 = call ptr @proto_tree_add_item(ptr noundef %129, i32 noundef %130, ptr noundef %131, i32 noundef %132, i32 noundef 1, i32 noundef 0)
  %134 = load i32, ptr %6, align 4
  %135 = add i32 %134, 1
  store i32 %135, ptr %6, align 4
  %136 = load ptr, ptr %5, align 8
  %137 = load i32, ptr @hf_s7comm_szl_0131_0007_len_2, align 4
  %138 = load ptr, ptr %4, align 8
  %139 = load i32, ptr %6, align 4
  %140 = call ptr @proto_tree_add_item(ptr noundef %136, i32 noundef %137, ptr noundef %138, i32 noundef %139, i32 noundef 1, i32 noundef 0)
  %141 = load i32, ptr %6, align 4
  %142 = add i32 %141, 1
  store i32 %142, ptr %6, align 4
  %143 = load ptr, ptr %5, align 8
  %144 = load i32, ptr @hf_s7comm_szl_0131_0007_len_3, align 4
  %145 = load ptr, ptr %4, align 8
  %146 = load i32, ptr %6, align 4
  %147 = call ptr @proto_tree_add_item(ptr noundef %143, i32 noundef %144, ptr noundef %145, i32 noundef %146, i32 noundef 1, i32 noundef 0)
  %148 = load i32, ptr %6, align 4
  %149 = add i32 %148, 1
  store i32 %149, ptr %6, align 4
  %150 = load ptr, ptr %5, align 8
  %151 = load i32, ptr @hf_s7comm_szl_0131_0007_res, align 4
  %152 = load ptr, ptr %4, align 8
  %153 = load i32, ptr %6, align 4
  %154 = call ptr @proto_tree_add_item(ptr noundef %150, i32 noundef %151, ptr noundef %152, i32 noundef %153, i32 noundef 19, i32 noundef 0)
  %155 = load i32, ptr %6, align 4
  %156 = add i32 %155, 19
  store i32 %156, ptr %6, align 4
  %157 = load i32, ptr %6, align 4
  ret i32 %157
}