; Function Attrs: null_pointer_is_valid sspstrong uwtable
define internal fastcc noundef i32 @s7comm_decode_szl_id_0131_idx_0007(ptr noundef %0, ptr noundef %1, i32 noundef %2) unnamed_addr #0 {
  %4 = load i32, ptr @hf_s7comm_szl_0131_0007_index, align 4
  %5 = tail call ptr @proto_tree_add_item(ptr noundef %1, i32 noundef %4, ptr noundef %0, i32 noundef %2, i32 noundef 2, i32 noundef 0)
  %6 = add i32 %2, 2
  %7 = load i32, ptr @hf_s7comm_szl_0131_0007_funkt_0, align 4
  %8 = load i32, ptr @ett_s7comm_szl_0131_0007_funkt_0, align 4
  %9 = tail call ptr @proto_tree_add_bitmask(ptr noundef %1, ptr noundef %0, i32 noundef %6, i32 noundef %7, i32 noundef %8, ptr noundef nonnull @s7comm_szl_0131_0007_funkt_0_fields, i32 noundef 0)
  %10 = add i32 %2, 3
  %11 = load i32, ptr @hf_s7comm_szl_0131_0007_funkt_1, align 4
  %12 = tail call ptr @proto_tree_add_item(ptr noundef %1, i32 noundef %11, ptr noundef %0, i32 noundef %10, i32 noundef 1, i32 noundef 0)
  %13 = add i32 %2, 4
  %14 = load i32, ptr @hf_s7comm_szl_0131_0007_obj_0, align 4
  %15 = load i32, ptr @ett_s7comm_szl_0131_0007_obj_0, align 4
  %16 = tail call ptr @proto_tree_add_bitmask(ptr noundef %1, ptr noundef %0, i32 noundef %13, i32 noundef %14, i32 noundef %15, ptr noundef nonnull @s7comm_szl_0131_0007_obj_0_fields, i32 noundef 0)
  %17 = add i32 %2, 5
  %18 = load i32, ptr @hf_s7comm_szl_0131_0007_obj_1, align 4
  %19 = tail call ptr @proto_tree_add_item(ptr noundef %1, i32 noundef %18, ptr noundef %0, i32 noundef %17, i32 noundef 1, i32 noundef 0)
  %20 = add i32 %2, 6
  %21 = load i32, ptr @hf_s7comm_szl_0131_0007_kons, align 4
  %22 = tail call ptr @proto_tree_add_item(ptr noundef %1, i32 noundef %21, ptr noundef %0, i32 noundef %20, i32 noundef 1, i32 noundef 0)
  %23 = add i32 %2, 7
  %24 = load i32, ptr @hf_s7comm_szl_0131_0007_sen, align 4
  %25 = tail call ptr @proto_tree_add_item(ptr noundef %1, i32 noundef %24, ptr noundef %0, i32 noundef %23, i32 noundef 1, i32 noundef 0)
  %26 = add i32 %2, 8
  %27 = load i32, ptr @hf_s7comm_szl_0131_0007_rec, align 4
  %28 = tail call ptr @proto_tree_add_item(ptr noundef %1, i32 noundef %27, ptr noundef %0, i32 noundef %26, i32 noundef 1, i32 noundef 0)
  %29 = add i32 %2, 9
  %30 = load i32, ptr @hf_s7comm_szl_0131_0007_time, align 4
  %31 = tail call ptr @proto_tree_add_item(ptr noundef %1, i32 noundef %30, ptr noundef %0, i32 noundef %29, i32 noundef 1, i32 noundef 0)
  %32 = add i32 %2, 10
  %33 = load i32, ptr @hf_s7comm_szl_0131_0007_proj, align 4
  %34 = tail call ptr @proto_tree_add_item(ptr noundef %1, i32 noundef %33, ptr noundef %0, i32 noundef %32, i32 noundef 1, i32 noundef 0)
  %35 = add i32 %2, 11
  %36 = load i32, ptr @hf_s7comm_szl_0131_0007_alarm, align 4
  %37 = tail call ptr @proto_tree_add_item(ptr noundef %1, i32 noundef %36, ptr noundef %0, i32 noundef %35, i32 noundef 1, i32 noundef 0)
  %38 = add i32 %2, 12
  %39 = load i32, ptr @hf_s7comm_szl_0131_0007_mode, align 4
  %40 = load i32, ptr @ett_s7comm_szl_0131_0007_mode, align 4
  %41 = tail call ptr @proto_tree_add_bitmask(ptr noundef %1, ptr noundef %0, i32 noundef %38, i32 noundef %39, i32 noundef %40, ptr noundef nonnull @s7comm_szl_0131_0007_mode_fields, i32 noundef 0)
  %42 = add i32 %2, 13
  %43 = load i32, ptr @hf_s7comm_szl_0131_0007_kreis, align 4
  %44 = tail call ptr @proto_tree_add_item(ptr noundef %1, i32 noundef %43, ptr noundef %0, i32 noundef %42, i32 noundef 1, i32 noundef 0)
  %45 = add i32 %2, 14
  %46 = load i32, ptr @hf_s7comm_szl_0131_0007_sk_1, align 4
  %47 = tail call ptr @proto_tree_add_item(ptr noundef %1, i32 noundef %46, ptr noundef %0, i32 noundef %45, i32 noundef 1, i32 noundef 0)
  %48 = add i32 %2, 15
  %49 = load i32, ptr @hf_s7comm_szl_0131_0007_sk_2, align 4
  %50 = tail call ptr @proto_tree_add_item(ptr noundef %1, i32 noundef %49, ptr noundef %0, i32 noundef %48, i32 noundef 1, i32 noundef 0)
  %51 = add i32 %2, 16
  %52 = load i32, ptr @hf_s7comm_szl_0131_0007_ek_1, align 4
  %53 = tail call ptr @proto_tree_add_item(ptr noundef %1, i32 noundef %52, ptr noundef %0, i32 noundef %51, i32 noundef 1, i32 noundef 0)
  %54 = add i32 %2, 17
  %55 = load i32, ptr @hf_s7comm_szl_0131_0007_ek_2, align 4
  %56 = tail call ptr @proto_tree_add_item(ptr noundef %1, i32 noundef %55, ptr noundef %0, i32 noundef %54, i32 noundef 1, i32 noundef 0)
  %57 = add i32 %2, 18
  %58 = load i32, ptr @hf_s7comm_szl_0131_0007_len_1, align 4
  %59 = tail call ptr @proto_tree_add_item(ptr noundef %1, i32 noundef %58, ptr noundef %0, i32 noundef %57, i32 noundef 1, i32 noundef 0)
  %60 = add i32 %2, 19
  %61 = load i32, ptr @hf_s7comm_szl_0131_0007_len_2, align 4
  %62 = tail call ptr @proto_tree_add_item(ptr noundef %1, i32 noundef %61, ptr noundef %0, i32 noundef %60, i32 noundef 1, i32 noundef 0)
  %63 = add i32 %2, 20
  %64 = load i32, ptr @hf_s7comm_szl_0131_0007_len_3, align 4
  %65 = tail call ptr @proto_tree_add_item(ptr noundef %1, i32 noundef %64, ptr noundef %0, i32 noundef %63, i32 noundef 1, i32 noundef 0)
  %66 = add i32 %2, 21
  %67 = load i32, ptr @hf_s7comm_szl_0131_0007_res, align 4
  %68 = tail call ptr @proto_tree_add_item(ptr noundef %1, i32 noundef %67, ptr noundef %0, i32 noundef %66, i32 noundef 19, i32 noundef 0)
  %69 = add i32 %2, 40
  ret i32 %69
}